; ModuleID = 'source-C-CXX/29/1641.cpp'
source_filename = "source-C-CXX/29/1641.cpp"
target datalayout = "e-m:e-p270:32:32-p271:32:32-p272:64:64-i64:64-f80:128-n8:16:32:64-S128"
target triple = "x86_64-pc-linux-gnu"

%"class.std::ios_base::Init" = type { i8 }
%"class.std::basic_istream" = type { i32 (...)**, i64, %"class.std::basic_ios" }
%"class.std::basic_ios" = type { %"class.std::ios_base", %"class.std::basic_ostream"*, i8, i8, %"class.std::basic_streambuf"*, %"class.std::ctype"*, %"class.std::num_put"*, %"class.std::num_get"* }
%"class.std::ios_base" = type { i32 (...)**, i64, i64, i32, i32, i32, %"struct.std::ios_base::_Callback_list"*, %"struct.std::ios_base::_Words", [8 x %"struct.std::ios_base::_Words"], i32, %"struct.std::ios_base::_Words"*, %"class.std::locale" }
%"struct.std::ios_base::_Callback_list" = type { %"struct.std::ios_base::_Callback_list"*, void (i32, %"class.std::ios_base"*, i32)*, i32, i32 }
%"struct.std::ios_base::_Words" = type { i8*, i64 }
%"class.std::locale" = type { %"class.std::locale::_Impl"* }
%"class.std::locale::_Impl" = type { i32, %"class.std::locale::facet"**, i64, %"class.std::locale::facet"**, i8** }
%"class.std::locale::facet" = type <{ i32 (...)**, i32, [4 x i8] }>
%"class.std::basic_ostream" = type { i32 (...)**, %"class.std::basic_ios" }
%"class.std::basic_streambuf" = type { i32 (...)**, i8*, i8*, i8*, i8*, i8*, i8*, %"class.std::locale" }
%"class.std::ctype" = type <{ %"class.std::locale::facet.base", [4 x i8], %struct.__locale_struct*, i8, [7 x i8], i32*, i32*, i16*, i8, [256 x i8], [256 x i8], i8, [6 x i8] }>
%"class.std::locale::facet.base" = type <{ i32 (...)**, i32 }>
%struct.__locale_struct = type { [13 x %struct.__locale_data*], i16*, i32*, i32*, [13 x i8*] }
%struct.__locale_data = type opaque
%"class.std::num_put" = type { %"class.std::locale::facet.base", [4 x i8] }
%"class.std::num_get" = type { %"class.std::locale::facet.base", [4 x i8] }

@_ZStL8__ioinit = internal global %"class.std::ios_base::Init" zeroinitializer, align 1
@__dso_handle = external hidden global i8
@_ZSt3cin = external global %"class.std::basic_istream", align 8
@_ZSt4cout = external global %"class.std::basic_ostream", align 8
@llvm.global_ctors = appending global [1 x { i32, void ()*, i8* }] [{ i32, void ()*, i8* } { i32 65535, void ()* @_GLOBAL__sub_I_1641.cpp, i8* null }]

declare void @_ZNSt8ios_base4InitC1Ev(%"class.std::ios_base::Init"* nonnull align 1 dereferenceable(1)) unnamed_addr #0

; Function Attrs: nounwind
declare void @_ZNSt8ios_base4InitD1Ev(%"class.std::ios_base::Init"* nonnull align 1 dereferenceable(1)) unnamed_addr #1

; Function Attrs: nofree nounwind
declare i32 @__cxa_atexit(void (i8*)*, i8*, i8*) local_unnamed_addr #2

; Function Attrs: mustprogress norecurse sspstrong uwtable
define dso_local i32 @main() local_unnamed_addr #3 {
  %1 = alloca i32, align 4
  %2 = bitcast i32* %1 to i8*
  call void @llvm.lifetime.start.p0i8(i64 4, i8* nonnull %2) #8
  %3 = call nonnull align 8 dereferenceable(16) %"class.std::basic_istream"* @_ZNSirsERi(%"class.std::basic_istream"* nonnull align 8 dereferenceable(16) @_ZSt3cin, i32* nonnull align 4 dereferenceable(4) %1)
  %4 = load i32, i32* %1, align 4, !tbaa !5
  %5 = icmp slt i32 %4, 1
  br i1 %5, label %68, label %6

6:                                                ; preds = %0
  %7 = add nsw i32 %4, -1
  %8 = zext i32 %7 to i33
  %9 = add nsw i32 %4, -2
  %10 = zext i32 %9 to i33
  %11 = mul i33 %8, %10
  %12 = add nsw i32 %4, -3
  %13 = zext i32 %12 to i33
  %14 = mul i33 %11, %13
  %15 = lshr i33 %14, 1
  %16 = trunc i33 %15 to i32
  %17 = mul i32 %16, 1431655766
  %18 = lshr i33 %11, 1
  %19 = trunc i33 %18 to i32
  %20 = mul i32 %19, 5
  %21 = add i32 %17, %20
  %22 = shl i32 %4, 2
  %23 = add i32 %21, %22
  %24 = add i32 %23, -3
  %25 = icmp ult i32 %4, 8
  br i1 %25, label %65, label %26

26:                                               ; preds = %6
  %27 = and i32 %4, -8
  %28 = or i32 %27, 1
  %29 = insertelement <4 x i32> <i32 poison, i32 0, i32 0, i32 0>, i32 %24, i32 0
  br label %30

30:                                               ; preds = %30, %26
  %31 = phi i32 [ 0, %26 ], [ %58, %30 ]
  %32 = phi <4 x i32> [ <i32 1, i32 2, i32 3, i32 4>, %26 ], [ %59, %30 ]
  %33 = phi <4 x i32> [ %29, %26 ], [ %56, %30 ]
  %34 = phi <4 x i32> [ zeroinitializer, %26 ], [ %57, %30 ]
  %35 = add <4 x i32> %32, <i32 4, i32 4, i32 4, i32 4>
  %36 = urem <4 x i32> %32, <i32 7, i32 7, i32 7, i32 7>
  %37 = urem <4 x i32> %35, <i32 7, i32 7, i32 7, i32 7>
  %38 = icmp eq <4 x i32> %36, zeroinitializer
  %39 = icmp eq <4 x i32> %37, zeroinitializer
  %40 = urem <4 x i32> %32, <i32 10, i32 10, i32 10, i32 10>
  %41 = urem <4 x i32> %35, <i32 10, i32 10, i32 10, i32 10>
  %42 = icmp eq <4 x i32> %40, <i32 7, i32 7, i32 7, i32 7>
  %43 = icmp eq <4 x i32> %41, <i32 7, i32 7, i32 7, i32 7>
  %44 = or <4 x i1> %38, %42
  %45 = or <4 x i1> %39, %43
  %46 = add nsw <4 x i32> %32, <i32 -70, i32 -70, i32 -70, i32 -70>
  %47 = add <4 x i32> %32, <i32 -66, i32 -66, i32 -66, i32 -66>
  %48 = icmp ult <4 x i32> %46, <i32 10, i32 10, i32 10, i32 10>
  %49 = icmp ult <4 x i32> %47, <i32 10, i32 10, i32 10, i32 10>
  %50 = select <4 x i1> %44, <4 x i1> <i1 true, i1 true, i1 true, i1 true>, <4 x i1> %48
  %51 = select <4 x i1> %45, <4 x i1> <i1 true, i1 true, i1 true, i1 true>, <4 x i1> %49
  %52 = mul nsw <4 x i32> %32, %32
  %53 = mul nsw <4 x i32> %35, %35
  %54 = select <4 x i1> %50, <4 x i32> %52, <4 x i32> zeroinitializer
  %55 = select <4 x i1> %51, <4 x i32> %53, <4 x i32> zeroinitializer
  %56 = sub <4 x i32> %33, %54
  %57 = sub <4 x i32> %34, %55
  %58 = add nuw i32 %31, 8
  %59 = add <4 x i32> %32, <i32 8, i32 8, i32 8, i32 8>
  %60 = icmp eq i32 %58, %27
  br i1 %60, label %61, label %30, !llvm.loop !9

61:                                               ; preds = %30
  %62 = add <4 x i32> %57, %56
  %63 = call i32 @llvm.vector.reduce.add.v4i32(<4 x i32> %62)
  %64 = icmp eq i32 %4, %27
  br i1 %64, label %68, label %65

65:                                               ; preds = %6, %61
  %66 = phi i32 [ 1, %6 ], [ %28, %61 ]
  %67 = phi i32 [ %24, %6 ], [ %63, %61 ]
  br label %100

68:                                               ; preds = %100, %61, %0
  %69 = phi i32 [ 0, %0 ], [ %63, %61 ], [ %113, %100 ]
  %70 = call nonnull align 8 dereferenceable(8) %"class.std::basic_ostream"* @_ZNSolsEi(%"class.std::basic_ostream"* nonnull align 8 dereferenceable(8) @_ZSt4cout, i32 %69)
  %71 = bitcast %"class.std::basic_ostream"* %70 to i8**
  %72 = load i8*, i8** %71, align 8, !tbaa !12
  %73 = getelementptr i8, i8* %72, i64 -24
  %74 = bitcast i8* %73 to i64*
  %75 = load i64, i64* %74, align 8
  %76 = bitcast %"class.std::basic_ostream"* %70 to i8*
  %77 = add nsw i64 %75, 240
  %78 = getelementptr inbounds i8, i8* %76, i64 %77
  %79 = bitcast i8* %78 to %"class.std::ctype"**
  %80 = load %"class.std::ctype"*, %"class.std::ctype"** %79, align 8, !tbaa !14
  %81 = icmp eq %"class.std::ctype"* %80, null
  br i1 %81, label %82, label %83

82:                                               ; preds = %68
  call void @_ZSt16__throw_bad_castv() #9
  unreachable

83:                                               ; preds = %68
  %84 = getelementptr inbounds %"class.std::ctype", %"class.std::ctype"* %80, i64 0, i32 8
  %85 = load i8, i8* %84, align 8, !tbaa !18
  %86 = icmp eq i8 %85, 0
  br i1 %86, label %90, label %87

87:                                               ; preds = %83
  %88 = getelementptr inbounds %"class.std::ctype", %"class.std::ctype"* %80, i64 0, i32 9, i64 10
  %89 = load i8, i8* %88, align 1, !tbaa !20
  br label %96

90:                                               ; preds = %83
  call void @_ZNKSt5ctypeIcE13_M_widen_initEv(%"class.std::ctype"* nonnull align 8 dereferenceable(570) %80)
  %91 = bitcast %"class.std::ctype"* %80 to i8 (%"class.std::ctype"*, i8)***
  %92 = load i8 (%"class.std::ctype"*, i8)**, i8 (%"class.std::ctype"*, i8)*** %91, align 8, !tbaa !12
  %93 = getelementptr inbounds i8 (%"class.std::ctype"*, i8)*, i8 (%"class.std::ctype"*, i8)** %92, i64 6
  %94 = load i8 (%"class.std::ctype"*, i8)*, i8 (%"class.std::ctype"*, i8)** %93, align 8
  %95 = call signext i8 %94(%"class.std::ctype"* nonnull align 8 dereferenceable(570) %80, i8 signext 10)
  br label %96

96:                                               ; preds = %87, %90
  %97 = phi i8 [ %89, %87 ], [ %95, %90 ]
  %98 = call nonnull align 8 dereferenceable(8) %"class.std::basic_ostream"* @_ZNSo3putEc(%"class.std::basic_ostream"* nonnull align 8 dereferenceable(8) %70, i8 signext %97)
  %99 = call nonnull align 8 dereferenceable(8) %"class.std::basic_ostream"* @_ZNSo5flushEv(%"class.std::basic_ostream"* nonnull align 8 dereferenceable(8) %98)
  call void @llvm.lifetime.end.p0i8(i64 4, i8* nonnull %2) #8
  ret i32 0

100:                                              ; preds = %65, %100
  %101 = phi i32 [ %114, %100 ], [ %66, %65 ]
  %102 = phi i32 [ %113, %100 ], [ %67, %65 ]
  %103 = urem i32 %101, 7
  %104 = icmp eq i32 %103, 0
  %105 = urem i32 %101, 10
  %106 = icmp eq i32 %105, 7
  %107 = or i1 %104, %106
  %108 = add nsw i32 %101, -70
  %109 = icmp ult i32 %108, 10
  %110 = select i1 %107, i1 true, i1 %109
  %111 = mul nsw i32 %101, %101
  %112 = select i1 %110, i32 %111, i32 0
  %113 = sub nsw i32 %102, %112
  %114 = add nuw i32 %101, 1
  %115 = icmp eq i32 %101, %4
  br i1 %115, label %68, label %100, !llvm.loop !21
}

; Function Attrs: argmemonly mustprogress nofree nosync nounwind willreturn
declare void @llvm.lifetime.start.p0i8(i64 immarg, i8* nocapture) #4

declare nonnull align 8 dereferenceable(16) %"class.std::basic_istream"* @_ZNSirsERi(%"class.std::basic_istream"* nonnull align 8 dereferenceable(16), i32* nonnull align 4 dereferenceable(4)) local_unnamed_addr #0

; Function Attrs: argmemonly mustprogress nofree nosync nounwind willreturn
declare void @llvm.lifetime.end.p0i8(i64 immarg, i8* nocapture) #4

declare nonnull align 8 dereferenceable(8) %"class.std::basic_ostream"* @_ZNSolsEi(%"class.std::basic_ostream"* nonnull align 8 dereferenceable(8), i32) local_unnamed_addr #0

declare nonnull align 8 dereferenceable(8) %"class.std::basic_ostream"* @_ZNSo3putEc(%"class.std::basic_ostream"* nonnull align 8 dereferenceable(8), i8 signext) local_unnamed_addr #0

declare nonnull align 8 dereferenceable(8) %"class.std::basic_ostream"* @_ZNSo5flushEv(%"class.std::basic_ostream"* nonnull align 8 dereferenceable(8)) local_unnamed_addr #0

; Function Attrs: noreturn
declare void @_ZSt16__throw_bad_castv() local_unnamed_addr #5

declare void @_ZNKSt5ctypeIcE13_M_widen_initEv(%"class.std::ctype"* nonnull align 8 dereferenceable(570)) local_unnamed_addr #0

; Function Attrs: sspstrong uwtable
define internal void @_GLOBAL__sub_I_1641.cpp() #6 section ".text.startup" {
  tail call void @_ZNSt8ios_base4InitC1Ev(%"class.std::ios_base::Init"* nonnull align 1 dereferenceable(1) @_ZStL8__ioinit)
  %1 = tail call i32 @__cxa_atexit(void (i8*)* bitcast (void (%"class.std::ios_base::Init"*)* @_ZNSt8ios_base4InitD1Ev to void (i8*)*), i8* getelementptr inbounds (%"class.std::ios_base::Init", %"class.std::ios_base::Init"* @_ZStL8__ioinit, i64 0, i32 0), i8* nonnull @__dso_handle) #8
  ret void
}

; Function Attrs: nofree nosync nounwind readnone willreturn
declare i32 @llvm.vector.reduce.add.v4i32(<4 x i32>) #7


!llvm.module.flags = !{!0, !1, !2, !3}
!llvm.ident = !{!4}

!0 = !{i32 1, !"wchar_size", i32 4}
!1 = !{i32 7, !"PIC Level", i32 2}
!2 = !{i32 7, !"PIE Level", i32 2}
!3 = !{i32 7, !"uwtable", i32 1}
!4 = !{!"clang version 13.0.0"}
!5 = !{!6, !6, i64 0}
!6 = !{!"int", !7, i64 0}
!7 = !{!"omnipotent char", !8, i64 0}
!8 = !{!"Simple C++ TBAA"}
!9 = distinct !{!9, !10, !11}
!10 = !{!"llvm.loop.mustprogress"}
!11 = !{!"llvm.loop.isvectorized", i32 1}
!12 = !{!13, !13, i64 0}
!13 = !{!"vtable pointer", !8, i64 0}
!14 = !{!15, !16, i64 240}
!15 = !{!"_ZTSSt9basic_iosIcSt11char_traitsIcEE", !16, i64 216, !7, i64 224, !17, i64 225, !16, i64 232, !16, i64 240, !16, i64 248, !16, i64 256}
!16 = !{!"any pointer", !7, i64 0}
!17 = !{!"bool", !7, i64 0}
!18 = !{!19, !7, i64 56}
!19 = !{!"_ZTSSt5ctypeIcE", !16, i64 16, !17, i64 24, !16, i64 32, !16, i64 40, !16, i64 48, !7, i64 56, !7, i64 57, !7, i64 313, !7, i64 569}
!20 = !{!7, !7, i64 0}
!21 = distinct !{!21, !10, !22, !11}
!22 = !{!"llvm.loop.unroll.runtime.disable"}
